target datalayout = "e-m:e-p270:32:32-p271:32:32-p272:64:64-i64:64-i128:128-f80:128-n8:16:32:64-S128"
target triple = "x86_64-pc-linux-gnu"

%struct._lv_global_t = type { i8, i8, %struct.lv_ll_t, ptr, ptr, %struct.lv_ll_t, i8, i32, i32, ptr, %struct.lv_ll_t, ptr, %struct.lv_ll_t, ptr, ptr, i32, ptr, i8, i32, i32, ptr, i32, %struct.lv_timer_state_t, %struct.lv_anim_state_t, %struct.lv_tick_state_t, %struct._lv_draw_buf_handlers_t, %struct._lv_draw_buf_handlers_t, %struct._lv_draw_buf_handlers_t, %struct.lv_ll_t, ptr, ptr, %struct.lv_draw_global_info_t, [4 x %struct.lv_draw_sw_mask_radius_circle_dsc_t], ptr, ptr, ptr, %struct.lv_tlsf_state_t, %struct.lv_ll_t, ptr, ptr, %struct.lv_style_t, i64, ptr, i32, ptr }
%struct.lv_timer_state_t = type { %struct.lv_ll_t, i8, i8, i8, i8, i32, i8, i32, i32, i32, i32, ptr, ptr }
%struct.lv_anim_state_t = type { i8, i8, ptr, %struct.lv_ll_t }
%struct.lv_tick_state_t = type { i32, i8, ptr, ptr }
%struct._lv_draw_buf_handlers_t = type { ptr, ptr, ptr, ptr, ptr, ptr }
%struct.lv_draw_global_info_t = type { ptr, i32, i32, i32, i32, i8 }
%struct.lv_draw_sw_mask_radius_circle_dsc_t = type { ptr, ptr, ptr, ptr, i32, i32, i32 }
%struct.lv_tlsf_state_t = type { ptr, i64, i64, %struct.lv_ll_t }
%struct.lv_ll_t = type { i32, ptr, ptr }
%struct.lv_style_t = type { ptr, i32, i8 }

@lv_global = external global %struct._lv_global_t, align 8

; Function Attrs: nounwind uwtable
define i32 @lv_rand(i32 noundef %0, i32 noundef %1) #0 {
  %3 = alloca i32, align 4
  %4 = alloca i32, align 4
  %5 = alloca i32, align 4
  store i32 %0, ptr %3, align 4, !tbaa !7
  store i32 %1, ptr %4, align 4, !tbaa !7
  call void @llvm.lifetime.start.p0(i64 4, ptr %5) #2
  %6 = load i32, ptr getelementptr inbounds nuw (%struct._lv_global_t, ptr @lv_global, i32 0, i32 19), align 8, !tbaa !24
  store i32 %6, ptr %5, align 4, !tbaa !7
  %7 = load i32, ptr %5, align 4, !tbaa !7
  %8 = shl i32 %7, 13
  %9 = load i32, ptr %5, align 4, !tbaa !7
  %10 = xor i32 %9, %8
  store i32 %10, ptr %5, align 4, !tbaa !7
  %11 = load i32, ptr %5, align 4, !tbaa !7
  %12 = lshr i32 %11, 17
  %13 = load i32, ptr %5, align 4, !tbaa !7
  %14 = xor i32 %13, %12
  store i32 %14, ptr %5, align 4, !tbaa !7
  %15 = load i32, ptr %5, align 4, !tbaa !7
  %16 = shl i32 %15, 5
  %17 = load i32, ptr %5, align 4, !tbaa !7
  %18 = xor i32 %17, %16
  store i32 %18, ptr %5, align 4, !tbaa !7
  %19 = load i32, ptr %5, align 4, !tbaa !7
  store i32 %19, ptr getelementptr inbounds nuw (%struct._lv_global_t, ptr @lv_global, i32 0, i32 19), align 8, !tbaa !24
  %20 = load i32, ptr getelementptr inbounds nuw (%struct._lv_global_t, ptr @lv_global, i32 0, i32 19), align 8, !tbaa !24
  %21 = load i32, ptr %4, align 4, !tbaa !7
  %22 = load i32, ptr %3, align 4, !tbaa !7
  %23 = sub i32 %21, %22
  %24 = add i32 %23, 1
  %25 = urem i32 %20, %24
  %26 = load i32, ptr %3, align 4, !tbaa !7
  %27 = add i32 %25, %26
  call void @llvm.lifetime.end.p0(i64 4, ptr %5) #2
  ret i32 %27
}