; Function Attrs: mustprogress nofree norecurse nosync nounwind willreturn memory(readwrite, argmem: none, inaccessiblemem: none) uwtable
define i32 @lv_rand(i32 noundef %0, i32 noundef %1) local_unnamed_addr #4 {
  %3 = load i32, ptr getelementptr inbounds nuw (i8, ptr @lv_global, i64 192), align 8, !tbaa !16
  %4 = shl i32 %3, 13
  %5 = xor i32 %4, %3
  %6 = lshr i32 %5, 17
  %7 = xor i32 %6, %5
  %8 = shl i32 %7, 5
  %9 = xor i32 %8, %7
  store i32 %9, ptr getelementptr inbounds nuw (i8, ptr @lv_global, i64 192), align 8, !tbaa !16
  %reass.sub = sub i32 %1, %0
  %10 = add i32 %reass.sub, 1
  %11 = urem i32 %9, %10
  %12 = add i32 %11, %0
  ret i32 %12
}